target datalayout = "e-m:e-p270:32:32-p271:32:32-p272:64:64-i64:64-i128:128-f80:128-n8:16:32:64-S128"
target triple = "x86_64-pc-linux-gnu"

%struct.ident_t = type { i32, i32, i32, i32, ptr }
%"class.LightGBM::MultiValBinWrapper" = type { i8, i8, i8, %"class.std::unique_ptr", %"class.std::unique_ptr", %"class.std::vector", %"class.std::vector", %"class.std::vector", %"class.std::vector.2", i32, i32, i32, i32, i32, i32, i32, i32, ptr, i64, i64, i64, i64 }
%"class.std::unique_ptr" = type { %"struct.std::__uniq_ptr_data" }
%"struct.std::__uniq_ptr_data" = type { %"class.std::__uniq_ptr_impl" }
%"class.std::__uniq_ptr_impl" = type { %"class.std::tuple" }
%"class.std::tuple" = type { %"struct.std::_Tuple_impl" }
%"struct.std::_Tuple_impl" = type { %"struct.std::_Head_base.1" }
%"struct.std::_Head_base.1" = type { ptr }
%"class.std::vector" = type { %"struct.std::_Vector_base" }
%"struct.std::_Vector_base" = type { %"struct.std::_Vector_base<unsigned int, std::allocator<unsigned int>>::_Vector_impl" }
%"struct.std::_Vector_base<unsigned int, std::allocator<unsigned int>>::_Vector_impl" = type { %"struct.std::_Vector_base<unsigned int, std::allocator<unsigned int>>::_Vector_impl_data" }
%"struct.std::_Vector_base<unsigned int, std::allocator<unsigned int>>::_Vector_impl_data" = type { ptr, ptr, ptr }
%"class.std::vector.2" = type { %"struct.std::_Vector_base.3" }
%"struct.std::_Vector_base.3" = type { %"struct.std::_Vector_base<int, std::allocator<int>>::_Vector_impl" }
%"struct.std::_Vector_base<int, std::allocator<int>>::_Vector_impl" = type { %"struct.std::_Vector_base<int, std::allocator<int>>::_Vector_impl_data" }
%"struct.std::_Vector_base<int, std::allocator<int>>::_Vector_impl_data" = type { ptr, ptr, ptr }
%"struct.std::_Vector_base.8" = type { %"struct.std::_Vector_base<double, LightGBM::Common::AlignmentAllocator<double>>::_Vector_impl" }
%"struct.std::_Vector_base<double, LightGBM::Common::AlignmentAllocator<double>>::_Vector_impl" = type { %"struct.std::_Vector_base<double, LightGBM::Common::AlignmentAllocator<double>>::_Vector_impl_data" }
%"struct.std::_Vector_base<double, LightGBM::Common::AlignmentAllocator<double>>::_Vector_impl_data" = type { ptr, ptr, ptr }

@1 = private unnamed_addr constant %struct.ident_t { i32 0, i32 514, i32 0, i32 22, ptr @0 }, align 8

; Function Attrs: mustprogress nounwind uwtable
define linkonce_odr noundef ptr @_ZNKSt6vectorIdN8LightGBM6Common18AlignmentAllocatorIdLm32EEEE11_M_data_ptrIdEEPT_S7_(ptr noundef nonnull align 8 dereferenceable(24) %0, ptr noundef %1) #4 comdat align 2 {
  %3 = alloca ptr, align 8
  %4 = alloca ptr, align 8
  store ptr %0, ptr %3, align 8, !tbaa !9
  store ptr %1, ptr %4, align 8, !tbaa !36
  %5 = load ptr, ptr %4, align 8, !tbaa !36
  ret ptr %5
}

; Function Attrs: mustprogress nounwind uwtable
define linkonce_odr noundef ptr @_ZNSt6vectorIdN8LightGBM6Common18AlignmentAllocatorIdLm32EEEE4dataEv(ptr noundef nonnull align 8 dereferenceable(24) %0) #4 comdat align 2 {
  %2 = alloca ptr, align 8
  store ptr %0, ptr %2, align 8, !tbaa !9
  %3 = load ptr, ptr %2, align 8
  %4 = getelementptr inbounds nuw %"struct.std::_Vector_base.8", ptr %3, i32 0, i32 0
  %5 = getelementptr inbounds nuw %"struct.std::_Vector_base<double, LightGBM::Common::AlignmentAllocator<double>>::_Vector_impl_data", ptr %4, i32 0, i32 0
  %6 = load ptr, ptr %5, align 8, !tbaa !38
  %7 = call noundef ptr @_ZNKSt6vectorIdN8LightGBM6Common18AlignmentAllocatorIdLm32EEEE11_M_data_ptrIdEEPT_S7_(ptr noundef nonnull align 8 dereferenceable(24) %3, ptr noundef %6) #3
  ret ptr %7
}

; Function Attrs: inlinehint mustprogress nounwind uwtable
define linkonce_odr noundef nonnull align 4 dereferenceable(4) ptr @_ZSt3minIiERKT_S2_S2_(ptr noundef nonnull align 4 dereferenceable(4) %0, ptr noundef nonnull align 4 dereferenceable(4) %1) #9 comdat {
  %3 = alloca ptr, align 8
  %4 = alloca ptr, align 8
  %5 = alloca ptr, align 8
  store ptr %0, ptr %4, align 8, !tbaa !41
  store ptr %1, ptr %5, align 8, !tbaa !41
  %6 = load ptr, ptr %5, align 8, !tbaa !41
  %7 = load i32, ptr %6, align 4, !tbaa !45
  %8 = load ptr, ptr %4, align 8, !tbaa !41
  %9 = load i32, ptr %8, align 4, !tbaa !45
  %10 = icmp slt i32 %7, %9
  br i1 %10, label %11, label %13

11:                                               ; preds = %2
  %12 = load ptr, ptr %5, align 8, !tbaa !41
  store ptr %12, ptr %3, align 8
  br label %15

13:                                               ; preds = %2
  %14 = load ptr, ptr %4, align 8, !tbaa !41
  store ptr %14, ptr %3, align 8
  br label %15

15:                                               ; preds = %13, %11
  %16 = load ptr, ptr %3, align 8
  ret ptr %16
}

; Function Attrs: alwaysinline norecurse nounwind uwtable
define internal void @_ZN8LightGBM18MultiValBinWrapper9HistMergeILb0ELi0ELi8EEEvPSt6vectorIdNS_6Common18AlignmentAllocatorIdLm32EEEE.omp_outlined(ptr noalias noundef %0, ptr noalias noundef %1, ptr noundef nonnull align 4 dereferenceable(4) %2, ptr noundef nonnull align 4 dereferenceable(4) %3, ptr noundef %4, ptr noundef nonnull align 8 dereferenceable(8) %5, ptr noundef nonnull align 8 dereferenceable(8) %6) #6 {
  %8 = alloca ptr, align 8
  %9 = alloca ptr, align 8
  %10 = alloca ptr, align 8
  %11 = alloca ptr, align 8
  %12 = alloca ptr, align 8
  %13 = alloca ptr, align 8
  %14 = alloca ptr, align 8
  %15 = alloca i32, align 4
  %16 = alloca i32, align 4
  %17 = alloca i32, align 4
  %18 = alloca i32, align 4
  %19 = alloca i32, align 4
  %20 = alloca i32, align 4
  %21 = alloca i32, align 4
  %22 = alloca i32, align 4
  %23 = alloca i32, align 4
  %24 = alloca i32, align 4
  %25 = alloca i32, align 4
  %26 = alloca i32, align 4
  %27 = alloca i32, align 4
  %28 = alloca i32, align 4
  %29 = alloca ptr, align 8
  %30 = alloca i32, align 4
  store ptr %0, ptr %8, align 8, !tbaa !41
  store ptr %1, ptr %9, align 8, !tbaa !41
  store ptr %2, ptr %10, align 8, !tbaa !41
  store ptr %3, ptr %11, align 8, !tbaa !41
  store ptr %4, ptr %12, align 8, !tbaa !4
  store ptr %5, ptr %13, align 8, !tbaa !85
  store ptr %6, ptr %14, align 8, !tbaa !42
  %31 = load ptr, ptr %10, align 8, !tbaa !41
  %32 = load ptr, ptr %11, align 8, !tbaa !41
  %33 = load ptr, ptr %12, align 8, !tbaa !4
  %34 = load ptr, ptr %13, align 8, !tbaa !85
  %35 = load ptr, ptr %14, align 8, !tbaa !42
  call void @llvm.lifetime.start.p0(i64 4, ptr %15) #3
  call void @llvm.lifetime.start.p0(i64 4, ptr %16) #3
  %36 = load i32, ptr %31, align 4, !tbaa !45
  store i32 %36, ptr %16, align 4, !tbaa !45
  call void @llvm.lifetime.start.p0(i64 4, ptr %17) #3
  %37 = load i32, ptr %16, align 4, !tbaa !45
  %38 = sub nsw i32 %37, 0
  %39 = sdiv i32 %38, 1
  %40 = sub nsw i32 %39, 1
  store i32 %40, ptr %17, align 4, !tbaa !45
  call void @llvm.lifetime.start.p0(i64 4, ptr %18) #3
  store i32 0, ptr %18, align 4, !tbaa !45
  call void @llvm.lifetime.end.p0(i64 4, ptr %18) #3
  %41 = load i32, ptr %16, align 4, !tbaa !45
  %42 = icmp slt i32 0, %41
  br i1 %42, label %43, label %142

43:                                               ; preds = %7
  call void @llvm.lifetime.start.p0(i64 4, ptr %19) #3
  store i32 0, ptr %19, align 4, !tbaa !45
  call void @llvm.lifetime.start.p0(i64 4, ptr %20) #3
  %44 = load i32, ptr %17, align 4, !tbaa !45
  store i32 %44, ptr %20, align 4, !tbaa !45
  call void @llvm.lifetime.start.p0(i64 4, ptr %21) #3
  store i32 1, ptr %21, align 4, !tbaa !45
  call void @llvm.lifetime.start.p0(i64 4, ptr %22) #3
  store i32 0, ptr %22, align 4, !tbaa !45
  call void @llvm.lifetime.start.p0(i64 4, ptr %23) #3
  %45 = load ptr, ptr %8, align 8
  %46 = load i32, ptr %45, align 4, !tbaa !45
  call void @__kmpc_for_static_init_4(ptr @1, i32 %46, i32 33, ptr %22, ptr %19, ptr %20, ptr %21, i32 1, i32 1)
  br label %47

47:                                               ; preds = %132, %43
  %48 = load i32, ptr %20, align 4, !tbaa !45
  %49 = load i32, ptr %17, align 4, !tbaa !45
  %50 = icmp sgt i32 %48, %49
  br i1 %50, label %51, label %53

51:                                               ; preds = %47
  %52 = load i32, ptr %17, align 4, !tbaa !45
  br label %55

53:                                               ; preds = %47
  %54 = load i32, ptr %20, align 4, !tbaa !45
  br label %55

55:                                               ; preds = %53, %51
  %56 = phi i32 [ %52, %51 ], [ %54, %53 ]
  store i32 %56, ptr %20, align 4, !tbaa !45
  %57 = load i32, ptr %19, align 4, !tbaa !45
  store i32 %57, ptr %15, align 4, !tbaa !45
  %58 = load i32, ptr %15, align 4, !tbaa !45
  %59 = load i32, ptr %20, align 4, !tbaa !45
  %60 = icmp sle i32 %58, %59
  br i1 %60, label %62, label %61

61:                                               ; preds = %55
  br label %139

62:                                               ; preds = %55
  br label %63

63:                                               ; preds = %128, %62
  %64 = load i32, ptr %15, align 4, !tbaa !45
  %65 = load i32, ptr %20, align 4, !tbaa !45
  %66 = icmp sle i32 %64, %65
  br i1 %66, label %68, label %67

67:                                               ; preds = %63
  br label %131

68:                                               ; preds = %63
  %69 = load i32, ptr %15, align 4, !tbaa !45
  %70 = mul nsw i32 %69, 1
  %71 = add nsw i32 0, %70
  store i32 %71, ptr %23, align 4, !tbaa !45
  call void @llvm.lifetime.start.p0(i64 4, ptr %24) #3
  %72 = load i32, ptr %23, align 4, !tbaa !45
  %73 = load i32, ptr %32, align 4, !tbaa !45
  %74 = mul nsw i32 %72, %73
  store i32 %74, ptr %24, align 4, !tbaa !45
  call void @llvm.lifetime.start.p0(i64 4, ptr %25) #3
  call void @llvm.lifetime.start.p0(i64 4, ptr %26) #3
  %75 = load i32, ptr %24, align 4, !tbaa !45
  %76 = load i32, ptr %32, align 4, !tbaa !45
  %77 = add nsw i32 %75, %76
  store i32 %77, ptr %26, align 4, !tbaa !45
  %78 = getelementptr inbounds nuw %"class.LightGBM::MultiValBinWrapper", ptr %33, i32 0, i32 10
  %79 = call noundef nonnull align 4 dereferenceable(4) ptr @_ZSt3minIiERKT_S2_S2_(ptr noundef nonnull align 4 dereferenceable(4) %26, ptr noundef nonnull align 4 dereferenceable(4) %78)
  %80 = load i32, ptr %79, align 4, !tbaa !45
  call void @llvm.lifetime.end.p0(i64 4, ptr %26) #3
  store i32 %80, ptr %25, align 4, !tbaa !45
  call void @llvm.lifetime.start.p0(i64 4, ptr %27) #3
  store i32 1, ptr %27, align 4, !tbaa !45
  br label %81

81:                                               ; preds = %123, %68
  %82 = load i32, ptr %27, align 4, !tbaa !45
  %83 = getelementptr inbounds nuw %"class.LightGBM::MultiValBinWrapper", ptr %33, i32 0, i32 12
  %84 = load i32, ptr %83, align 4, !tbaa !87
  %85 = icmp slt i32 %82, %84
  br i1 %85, label %87, label %86

86:                                               ; preds = %81
  store i32 7, ptr %28, align 4
  call void @llvm.lifetime.end.p0(i64 4, ptr %27) #3
  br label %126

87:                                               ; preds = %81
  call void @llvm.lifetime.start.p0(i64 8, ptr %29) #3
  %88 = load ptr, ptr %34, align 8, !tbaa !9
  %89 = call noundef ptr @_ZNSt6vectorIdN8LightGBM6Common18AlignmentAllocatorIdLm32EEEE4dataEv(ptr noundef nonnull align 8 dereferenceable(24) %88) #3
  %90 = getelementptr inbounds nuw %"class.LightGBM::MultiValBinWrapper", ptr %33, i32 0, i32 11
  %91 = load i32, ptr %90, align 8, !tbaa !35
  %92 = sext i32 %91 to i64
  %93 = mul i64 %92, 2
  %94 = load i32, ptr %27, align 4, !tbaa !45
  %95 = sub nsw i32 %94, 1
  %96 = sext i32 %95 to i64
  %97 = mul i64 %93, %96
  %98 = getelementptr inbounds nuw double, ptr %89, i64 %97
  store ptr %98, ptr %29, align 8, !tbaa !36
  call void @llvm.lifetime.start.p0(i64 4, ptr %30) #3
  %99 = load i32, ptr %24, align 4, !tbaa !45
  %100 = mul nsw i32 %99, 2
  store i32 %100, ptr %30, align 4, !tbaa !45
  br label %101

101:                                              ; preds = %119, %87
  %102 = load i32, ptr %30, align 4, !tbaa !45
  %103 = load i32, ptr %25, align 4, !tbaa !45
  %104 = mul nsw i32 %103, 2
  %105 = icmp slt i32 %102, %104
  br i1 %105, label %107, label %106

106:                                              ; preds = %101
  store i32 10, ptr %28, align 4
  call void @llvm.lifetime.end.p0(i64 4, ptr %30) #3
  br label %122

107:                                              ; preds = %101
  %108 = load ptr, ptr %29, align 8, !tbaa !36
  %109 = load i32, ptr %30, align 4, !tbaa !45
  %110 = sext i32 %109 to i64
  %111 = getelementptr inbounds double, ptr %108, i64 %110
  %112 = load double, ptr %111, align 8, !tbaa !88
  %113 = load ptr, ptr %35, align 8, !tbaa !36
  %114 = load i32, ptr %30, align 4, !tbaa !45
  %115 = sext i32 %114 to i64
  %116 = getelementptr inbounds double, ptr %113, i64 %115
  %117 = load double, ptr %116, align 8, !tbaa !88
  %118 = fadd double %117, %112
  store double %118, ptr %116, align 8, !tbaa !88
  br label %119

119:                                              ; preds = %107
  %120 = load i32, ptr %30, align 4, !tbaa !45
  %121 = add nsw i32 %120, 1
  store i32 %121, ptr %30, align 4, !tbaa !45
  br label %101, !llvm.loop !93

122:                                              ; preds = %106
  call void @llvm.lifetime.end.p0(i64 8, ptr %29) #3
  br label %123

123:                                              ; preds = %122
  %124 = load i32, ptr %27, align 4, !tbaa !45
  %125 = add nsw i32 %124, 1
  store i32 %125, ptr %27, align 4, !tbaa !45
  br label %81, !llvm.loop !94

126:                                              ; preds = %86
  call void @llvm.lifetime.end.p0(i64 4, ptr %25) #3
  call void @llvm.lifetime.end.p0(i64 4, ptr %24) #3
  br label %127

127:                                              ; preds = %126
  br label %128

128:                                              ; preds = %127
  %129 = load i32, ptr %15, align 4, !tbaa !45
  %130 = add nsw i32 %129, 1
  store i32 %130, ptr %15, align 4, !tbaa !45
  br label %63

131:                                              ; preds = %67
  br label %132

132:                                              ; preds = %131
  %133 = load i32, ptr %19, align 4, !tbaa !45
  %134 = load i32, ptr %21, align 4, !tbaa !45
  %135 = add nsw i32 %133, %134
  store i32 %135, ptr %19, align 4, !tbaa !45
  %136 = load i32, ptr %20, align 4, !tbaa !45
  %137 = load i32, ptr %21, align 4, !tbaa !45
  %138 = add nsw i32 %136, %137
  store i32 %138, ptr %20, align 4, !tbaa !45
  br label %47

139:                                              ; preds = %61
  %140 = load ptr, ptr %8, align 8
  %141 = load i32, ptr %140, align 4, !tbaa !45
  call void @__kmpc_for_static_fini(ptr @1, i32 %141)
  call void @llvm.lifetime.end.p0(i64 4, ptr %23) #3
  call void @llvm.lifetime.end.p0(i64 4, ptr %22) #3
  call void @llvm.lifetime.end.p0(i64 4, ptr %21) #3
  call void @llvm.lifetime.end.p0(i64 4, ptr %20) #3
  call void @llvm.lifetime.end.p0(i64 4, ptr %19) #3
  br label %142

142:                                              ; preds = %139, %7
  call void @llvm.lifetime.end.p0(i64 4, ptr %17) #3
  call void @llvm.lifetime.end.p0(i64 4, ptr %16) #3
  call void @llvm.lifetime.end.p0(i64 4, ptr %15) #3
  ret void
}